target datalayout = "e-m:e-p270:32:32-p271:32:32-p272:64:64-i64:64-i128:128-f80:128-n8:16:32:64-S128"
target triple = "x86_64-pc-linux-gnu"

%struct.Abc_Aig_t_ = type { ptr, ptr, ptr, i32, i32, ptr, ptr, ptr, ptr, ptr, ptr, ptr, i32, i32, i32, i32 }
%struct.Vec_Int_t_ = type { i32, i32, ptr }
%struct.Abc_Ntk_t_ = type { i32, i32, ptr, ptr, ptr, ptr, ptr, ptr, ptr, ptr, ptr, ptr, ptr, [11 x i32], i32, i32, i32, i32, ptr, i32, ptr, ptr, i32, i32, i32, double, i32, %struct.Vec_Int_t_, ptr, ptr, ptr, ptr, ptr, float, i32, ptr, ptr, ptr, ptr, ptr, ptr, ptr, ptr, ptr, ptr, ptr, ptr, ptr, ptr, ptr, ptr, ptr, ptr, ptr, ptr, ptr }
%struct.Vec_Ptr_t_ = type { i32, i32, ptr }

; Function Attrs: nounwind uwtable
define ptr @Abc_AigOr(ptr noundef %0, ptr noundef %1, ptr noundef %2) #0 {
  %4 = alloca ptr, align 8
  %5 = alloca ptr, align 8
  %6 = alloca ptr, align 8
  store ptr %0, ptr %4, align 8
  store ptr %1, ptr %5, align 8
  store ptr %2, ptr %6, align 8
  %7 = load ptr, ptr %4, align 8
  %8 = load ptr, ptr %5, align 8
  %9 = call ptr @Abc_ObjNot(ptr noundef %8)
  %10 = load ptr, ptr %6, align 8
  %11 = call ptr @Abc_ObjNot(ptr noundef %10)
  %12 = call ptr @Abc_AigAnd(ptr noundef %7, ptr noundef %9, ptr noundef %11)
  %13 = call ptr @Abc_ObjNot(ptr noundef %12)
  ret ptr %13
}

; Function Attrs: nounwind uwtable
define ptr @Abc_AigXor(ptr noundef %0, ptr noundef %1, ptr noundef %2) #0 {
  %4 = alloca ptr, align 8
  %5 = alloca ptr, align 8
  %6 = alloca ptr, align 8
  store ptr %0, ptr %4, align 8
  store ptr %1, ptr %5, align 8
  store ptr %2, ptr %6, align 8
  %7 = load ptr, ptr %4, align 8
  %8 = load ptr, ptr %4, align 8
  %9 = load ptr, ptr %5, align 8
  %10 = load ptr, ptr %6, align 8
  %11 = call ptr @Abc_ObjNot(ptr noundef %10)
  %12 = call ptr @Abc_AigAnd(ptr noundef %8, ptr noundef %9, ptr noundef %11)
  %13 = load ptr, ptr %4, align 8
  %14 = load ptr, ptr %6, align 8
  %15 = load ptr, ptr %5, align 8
  %16 = call ptr @Abc_ObjNot(ptr noundef %15)
  %17 = call ptr @Abc_AigAnd(ptr noundef %13, ptr noundef %14, ptr noundef %16)
  %18 = call ptr @Abc_AigOr(ptr noundef %7, ptr noundef %12, ptr noundef %17)
  ret ptr %18
}

; Function Attrs: nounwind uwtable
define internal ptr @Abc_ObjNot(ptr noundef %0) #0 {
  %2 = alloca ptr, align 8
  store ptr %0, ptr %2, align 8
  %3 = load ptr, ptr %2, align 8
  %4 = ptrtoint ptr %3 to i64
  %5 = xor i64 %4, 1
  %6 = inttoptr i64 %5 to ptr
  ret ptr %6
}

; Function Attrs: nounwind uwtable
define ptr @Abc_AigConst1(ptr noundef %0) #0 {
  %2 = alloca ptr, align 8
  store ptr %0, ptr %2, align 8
  %3 = load ptr, ptr %2, align 8
  %4 = getelementptr inbounds %struct.Abc_Ntk_t_, ptr %3, i32 0, i32 30
  %5 = load ptr, ptr %4, align 8
  %6 = getelementptr inbounds %struct.Abc_Aig_t_, ptr %5, i32 0, i32 1
  %7 = load ptr, ptr %6, align 8
  ret ptr %7
}

; Function Attrs: nounwind uwtable
define ptr @Abc_AigMiter(ptr noundef %0, ptr noundef %1, i32 noundef %2) #0 {
  %4 = alloca ptr, align 8
  %5 = alloca ptr, align 8
  %6 = alloca ptr, align 8
  %7 = alloca i32, align 4
  %8 = alloca i32, align 4
  store ptr %0, ptr %5, align 8
  store ptr %1, ptr %6, align 8
  store i32 %2, ptr %7, align 4
  %9 = load ptr, ptr %6, align 8
  %10 = getelementptr inbounds %struct.Vec_Ptr_t_, ptr %9, i32 0, i32 1
  %11 = load i32, ptr %10, align 4
  %12 = icmp eq i32 %11, 0
  br i1 %12, label %13, label %19

13:                                               ; preds = %3
  %14 = load ptr, ptr %5, align 8
  %15 = getelementptr inbounds %struct.Abc_Aig_t_, ptr %14, i32 0, i32 0
  %16 = load ptr, ptr %15, align 8
  %17 = call ptr @Abc_AigConst1(ptr noundef %16)
  %18 = call ptr @Abc_ObjNot(ptr noundef %17)
  store ptr %18, ptr %4, align 8
  br label %110

19:                                               ; preds = %3
  %20 = load i32, ptr %7, align 4
  %21 = icmp ne i32 %20, 0
  br i1 %21, label %22, label %59

22:                                               ; preds = %19
  store i32 0, ptr %8, align 4
  br label %23

23:                                               ; preds = %55, %22
  %24 = load i32, ptr %8, align 4
  %25 = load ptr, ptr %6, align 8
  %26 = getelementptr inbounds %struct.Vec_Ptr_t_, ptr %25, i32 0, i32 1
  %27 = load i32, ptr %26, align 4
  %28 = icmp slt i32 %24, %27
  br i1 %28, label %29, label %58

29:                                               ; preds = %23
  %30 = load ptr, ptr %5, align 8
  %31 = load ptr, ptr %6, align 8
  %32 = getelementptr inbounds %struct.Vec_Ptr_t_, ptr %31, i32 0, i32 2
  %33 = load ptr, ptr %32, align 8
  %34 = load i32, ptr %8, align 4
  %35 = sext i32 %34 to i64
  %36 = getelementptr inbounds ptr, ptr %33, i64 %35
  %37 = load ptr, ptr %36, align 8
  %38 = load ptr, ptr %6, align 8
  %39 = getelementptr inbounds %struct.Vec_Ptr_t_, ptr %38, i32 0, i32 2
  %40 = load ptr, ptr %39, align 8
  %41 = load i32, ptr %8, align 4
  %42 = add nsw i32 %41, 1
  %43 = sext i32 %42 to i64
  %44 = getelementptr inbounds ptr, ptr %40, i64 %43
  %45 = load ptr, ptr %44, align 8
  %46 = call ptr @Abc_ObjNot(ptr noundef %45)
  %47 = call ptr @Abc_AigAnd(ptr noundef %30, ptr noundef %37, ptr noundef %46)
  %48 = load ptr, ptr %6, align 8
  %49 = getelementptr inbounds %struct.Vec_Ptr_t_, ptr %48, i32 0, i32 2
  %50 = load ptr, ptr %49, align 8
  %51 = load i32, ptr %8, align 4
  %52 = sdiv i32 %51, 2
  %53 = sext i32 %52 to i64
  %54 = getelementptr inbounds ptr, ptr %50, i64 %53
  store ptr %47, ptr %54, align 8
  br label %55

55:                                               ; preds = %29
  %56 = load i32, ptr %8, align 4
  %57 = add nsw i32 %56, 2
  store i32 %57, ptr %8, align 4
  br label %23, !llvm.loop !23

58:                                               ; preds = %23
  br label %95

59:                                               ; preds = %19
  store i32 0, ptr %8, align 4
  br label %60

60:                                               ; preds = %91, %59
  %61 = load i32, ptr %8, align 4
  %62 = load ptr, ptr %6, align 8
  %63 = getelementptr inbounds %struct.Vec_Ptr_t_, ptr %62, i32 0, i32 1
  %64 = load i32, ptr %63, align 4
  %65 = icmp slt i32 %61, %64
  br i1 %65, label %66, label %94

66:                                               ; preds = %60
  %67 = load ptr, ptr %5, align 8
  %68 = load ptr, ptr %6, align 8
  %69 = getelementptr inbounds %struct.Vec_Ptr_t_, ptr %68, i32 0, i32 2
  %70 = load ptr, ptr %69, align 8
  %71 = load i32, ptr %8, align 4
  %72 = sext i32 %71 to i64
  %73 = getelementptr inbounds ptr, ptr %70, i64 %72
  %74 = load ptr, ptr %73, align 8
  %75 = load ptr, ptr %6, align 8
  %76 = getelementptr inbounds %struct.Vec_Ptr_t_, ptr %75, i32 0, i32 2
  %77 = load ptr, ptr %76, align 8
  %78 = load i32, ptr %8, align 4
  %79 = add nsw i32 %78, 1
  %80 = sext i32 %79 to i64
  %81 = getelementptr inbounds ptr, ptr %77, i64 %80
  %82 = load ptr, ptr %81, align 8
  %83 = call ptr @Abc_AigXor(ptr noundef %67, ptr noundef %74, ptr noundef %82)
  %84 = load ptr, ptr %6, align 8
  %85 = getelementptr inbounds %struct.Vec_Ptr_t_, ptr %84, i32 0, i32 2
  %86 = load ptr, ptr %85, align 8
  %87 = load i32, ptr %8, align 4
  %88 = sdiv i32 %87, 2
  %89 = sext i32 %88 to i64
  %90 = getelementptr inbounds ptr, ptr %86, i64 %89
  store ptr %83, ptr %90, align 8
  br label %91

91:                                               ; preds = %66
  %92 = load i32, ptr %8, align 4
  %93 = add nsw i32 %92, 2
  store i32 %93, ptr %8, align 4
  br label %60, !llvm.loop !24

94:                                               ; preds = %60
  br label %95

95:                                               ; preds = %94, %58
  %96 = load ptr, ptr %6, align 8
  %97 = getelementptr inbounds %struct.Vec_Ptr_t_, ptr %96, i32 0, i32 1
  %98 = load i32, ptr %97, align 4
  %99 = sdiv i32 %98, 2
  %100 = load ptr, ptr %6, align 8
  %101 = getelementptr inbounds %struct.Vec_Ptr_t_, ptr %100, i32 0, i32 1
  store i32 %99, ptr %101, align 4
  %102 = load ptr, ptr %5, align 8
  %103 = load ptr, ptr %6, align 8
  %104 = getelementptr inbounds %struct.Vec_Ptr_t_, ptr %103, i32 0, i32 2
  %105 = load ptr, ptr %104, align 8
  %106 = load ptr, ptr %6, align 8
  %107 = getelementptr inbounds %struct.Vec_Ptr_t_, ptr %106, i32 0, i32 1
  %108 = load i32, ptr %107, align 4
  %109 = call ptr @Abc_AigMiter_rec(ptr noundef %102, ptr noundef %105, i32 noundef %108)
  store ptr %109, ptr %4, align 8
  br label %110

110:                                              ; preds = %95, %13
  %111 = load ptr, ptr %4, align 8
  ret ptr %111
}