; Function Attrs: nounwind uwtable
define ptr @Abc_AigMiter(ptr noundef %0, ptr noundef captures(none) %1, i32 noundef %2) local_unnamed_addr #0 {
  %4 = getelementptr inbounds nuw i8, ptr %1, i64 4
  %5 = load i32, ptr %4, align 4
  %6 = icmp eq i32 %5, 0
  br i1 %6, label %7, label %16

7:                                                ; preds = %3
  %8 = load ptr, ptr %0, align 8
  %9 = getelementptr inbounds nuw i8, ptr %8, i64 256
  %10 = load ptr, ptr %9, align 8
  %11 = getelementptr inbounds nuw i8, ptr %10, i64 8
  %12 = load ptr, ptr %11, align 8
  %13 = ptrtoint ptr %12 to i64
  %14 = xor i64 %13, 1
  %15 = inttoptr i64 %14 to ptr
  br label %73

16:                                               ; preds = %3
  %.not = icmp eq i32 %2, 0
  %17 = icmp sgt i32 %5, 0
  br i1 %.not, label %.preheader, label %.preheader29

.preheader29:                                     ; preds = %16
  br i1 %17, label %.lr.ph, label %.loopexit

.lr.ph:                                           ; preds = %.preheader29
  %18 = getelementptr inbounds nuw i8, ptr %1, i64 8
  br label %20

.preheader:                                       ; preds = %16
  br i1 %17, label %.lr.ph33, label %.loopexit

.lr.ph33:                                         ; preds = %.preheader
  %19 = getelementptr inbounds nuw i8, ptr %1, i64 8
  br label %37

20:                                               ; preds = %.lr.ph, %20
  %indvars.iv = phi i64 [ 0, %.lr.ph ], [ %indvars.iv.next, %20 ]
  %21 = load ptr, ptr %18, align 8
  %22 = getelementptr inbounds nuw ptr, ptr %21, i64 %indvars.iv
  %23 = load ptr, ptr %22, align 8
  %24 = or disjoint i64 %indvars.iv, 1
  %25 = getelementptr inbounds nuw ptr, ptr %21, i64 %24
  %26 = load ptr, ptr %25, align 8
  %27 = ptrtoint ptr %26 to i64
  %28 = xor i64 %27, 1
  %29 = inttoptr i64 %28 to ptr
  %30 = tail call ptr @Abc_AigAnd(ptr noundef %0, ptr noundef %23, ptr noundef %29)
  %31 = load ptr, ptr %18, align 8
  %32 = lshr exact i64 %indvars.iv, 1
  %33 = getelementptr inbounds nuw ptr, ptr %31, i64 %32
  store ptr %30, ptr %33, align 8
  %indvars.iv.next = add nuw nsw i64 %indvars.iv, 2
  %34 = load i32, ptr %4, align 4
  %35 = trunc nuw i64 %indvars.iv.next to i32
  %36 = icmp sgt i32 %34, %35
  br i1 %36, label %20, label %.loopexit, !llvm.loop !28

37:                                               ; preds = %.lr.ph33, %37
  %indvars.iv36 = phi i64 [ 0, %.lr.ph33 ], [ %indvars.iv.next37, %37 ]
  %38 = load ptr, ptr %19, align 8
  %39 = getelementptr inbounds nuw ptr, ptr %38, i64 %indvars.iv36
  %40 = load ptr, ptr %39, align 8
  %41 = or disjoint i64 %indvars.iv36, 1
  %42 = getelementptr inbounds nuw ptr, ptr %38, i64 %41
  %43 = load ptr, ptr %42, align 8
  %44 = ptrtoint ptr %43 to i64
  %45 = xor i64 %44, 1
  %46 = inttoptr i64 %45 to ptr
  %47 = tail call ptr @Abc_AigAnd(ptr noundef %0, ptr noundef %40, ptr noundef %46)
  %48 = ptrtoint ptr %40 to i64
  %49 = xor i64 %48, 1
  %50 = inttoptr i64 %49 to ptr
  %51 = tail call ptr @Abc_AigAnd(ptr noundef %0, ptr noundef %43, ptr noundef %50)
  %52 = ptrtoint ptr %47 to i64
  %53 = xor i64 %52, 1
  %54 = inttoptr i64 %53 to ptr
  %55 = ptrtoint ptr %51 to i64
  %56 = xor i64 %55, 1
  %57 = inttoptr i64 %56 to ptr
  %58 = tail call ptr @Abc_AigAnd(ptr noundef %0, ptr noundef %54, ptr noundef %57)
  %59 = ptrtoint ptr %58 to i64
  %60 = xor i64 %59, 1
  %61 = inttoptr i64 %60 to ptr
  %62 = load ptr, ptr %19, align 8
  %63 = lshr exact i64 %indvars.iv36, 1
  %64 = getelementptr inbounds nuw ptr, ptr %62, i64 %63
  store ptr %61, ptr %64, align 8
  %indvars.iv.next37 = add nuw nsw i64 %indvars.iv36, 2
  %65 = load i32, ptr %4, align 4
  %66 = trunc nuw i64 %indvars.iv.next37 to i32
  %67 = icmp sgt i32 %65, %66
  br i1 %67, label %37, label %.loopexit, !llvm.loop !29

.loopexit:                                        ; preds = %20, %37, %.preheader29, %.preheader
  %68 = phi i32 [ %5, %.preheader29 ], [ %5, %.preheader ], [ %65, %37 ], [ %34, %20 ]
  %69 = sdiv i32 %68, 2
  store i32 %69, ptr %4, align 4
  %70 = getelementptr inbounds nuw i8, ptr %1, i64 8
  %71 = load ptr, ptr %70, align 8
  %72 = tail call ptr @Abc_AigMiter_rec(ptr noundef %0, ptr noundef %71, i32 noundef %69)
  br label %73

73:                                               ; preds = %.loopexit, %7
  %.028 = phi ptr [ %15, %7 ], [ %72, %.loopexit ]
  ret ptr %.028
}